target datalayout = "e-m:e-p270:32:32-p271:32:32-p272:64:64-i64:64-i128:128-f80:128-n8:16:32:64-S128"
target triple = "x86_64-pc-linux-gnu"

%struct.redisServer = type { i32, i64, ptr, ptr, ptr, i32, i32, i32, i32, i32, ptr, ptr, ptr, ptr, ptr, i32, i32, i32, i32, i64, i32, i32, i32, i32, ptr, i32, i32, [41 x i8], i32, i64, i32, i32, i32, ptr, ptr, i32, i32, i64, ptr, ptr, ptr, ptr, [2 x i32], i32, i32, i32, i32, i32, i32, [16 x ptr], i32, ptr, ptr, i32, [8 x %struct.connListener], i32, %struct.connListener, ptr, ptr, ptr, ptr, ptr, ptr, ptr, ptr, ptr, ptr, i32, ptr, i32, ptr, [3 x %struct.pause_event], [256 x i8], ptr, i64, i32, i32, [128 x i32], i32, i32, i64, i32, i32, i32, i32, i32, i64, i64, i64, i64, i64, i64, i64, i64, i64, i64, double, i64, i64, i64, i64, i64, i64, i64, i64, i64, i64, i64, i64, i64, i64, i64, i64, i64, i64, i64, i64, i64, double, i64, i64, i64, i64, i64, ptr, i64, i64, i64, %struct.malloc_stats, i64, i64, i64, i64, i64, i64, i64, i64, i64, i64, i64, i64, double, [4 x i64], i64, i64, i64, i64, [128 x i64], [128 x i64], i64, i64, [7 x %struct.anon], i64, i64, i64, i64, i64, i64, [4 x %struct.durationStats], i32, i32, i32, i32, i32, i32, i32, i32, i32, i32, i32, i32, i64, i32, i32, i32, i32, i64, i64, i32, i32, i32, i32, i32, ptr, [3 x %struct.clientBufferLimitsConfig], i32, i32, i32, ptr, i32, i32, i32, i32, i32, i32, ptr, ptr, i32, i32, i64, i64, i64, i64, i64, i32, i32, ptr, i32, i32, i64, i64, i64, i64, i64, i32, i32, i64, i32, i32, i32, i32, i32, i32, i32, i32, ptr, i32, i64, i64, i64, i64, i32, ptr, i32, ptr, i32, i32, i32, i64, i64, i64, i64, i32, i32, i32, i32, i32, i32, ptr, i32, i32, ptr, i32, i32, i32, [2 x i32], i32, %struct.redisOpArray, i32, ptr, i32, ptr, i32, i32, i32, i32, i32, i32, i32, [41 x i8], [41 x i8], i64, i64, i64, i64, i32, i32, ptr, i64, i64, %struct.replDataBuf, i64, i64, i32, i32, i32, i32, i32, i32, i32, i32, i32, i64, ptr, i64, ptr, ptr, ptr, i32, i32, ptr, ptr, i32, i32, i32, i64, i64, i64, i64, ptr, ptr, i32, ptr, i64, i32, i32, i32, i64, i32, i32, i32, i32, ptr, i32, i32, [41 x i8], i64, i32, ptr, i32, i32, i64, i64, i32, i32, i32, i32, i32, i64, [3 x i32], i32, i32, i32, [10 x i32], ptr, ptr, i32, i64, ptr, ptr, i32, i32, i32, i32, i64, i64, i64, i64, i64, i64, i64, i64, i64, i64, i32, i32, i64, i64, i32, i64, i64, i64, i64, i64, ptr, ptr, i32, ptr, i32, i32, i32, i32, i64, i64, ptr, ptr, i32, i32, i32, i32, i32, ptr, ptr, ptr, i32, i32, i32, i32, i32, i32, i32, i64, i32, i32, i64, i32, i32, i32, i32, i32, i32, i32, i64, ptr, ptr, i64, ptr, i32, %struct.aclInfo, i32, i64, i32, i32, i32, %struct.redisTLSContextConfig, ptr, ptr, ptr, ptr, ptr, i64, i32, ptr, i32, i32, i32, i64, i32, ptr }
%struct.connListener = type { [16 x i32], i32, ptr, i32, i32, ptr, ptr }
%struct.pause_event = type { i32, i64 }
%struct.malloc_stats = type { i64, i64, i64, i64, i64, i64, i64, i64, i64, i64, i64 }
%struct.anon = type { i64, i64, [16 x i64], i32 }
%struct.durationStats = type { i64, i64, i64 }
%struct.clientBufferLimitsConfig = type { i64, i64, i64 }
%struct.redisOpArray = type { ptr, i32, i32 }
%struct.replDataBuf = type { ptr, i64, i64, i64, i64 }
%struct.aclInfo = type { i64, i64, i64, i64 }
%struct.redisTLSContextConfig = type { ptr, ptr, ptr, ptr, ptr, ptr, ptr, ptr, ptr, ptr, ptr, ptr, i32, i32, i32, i32 }

@server = external global %struct.redisServer, align 8
@.str.49 = private unnamed_addr constant [44 x i8] c"Can't open or create append-only dir %s: %s\00", align 1
@.str.149 = private unnamed_addr constant [12 x i8] c"AOF rewrite\00", align 1
@.str.156 = private unnamed_addr constant [18 x i8] c"redis-aof-rewrite\00", align 1
@.str.157 = private unnamed_addr constant [26 x i8] c"temp-rewriteaof-bg-%d.aof\00", align 1
@.str.158 = private unnamed_addr constant [52 x i8] c"Successfully created the temporary AOF base file %s\00", align 1
@.str.159 = private unnamed_addr constant [55 x i8] c"Can't rewrite append only file in background: fork: %s\00", align 1
@.str.160 = private unnamed_addr constant [57 x i8] c"Background append only file rewriting started by pid %ld\00", align 1

; Function Attrs: nounwind uwtable
define dso_local i32 @rewriteAppendOnlyFileBackground() #0 {
  %1 = alloca i32, align 4
  %2 = alloca i32, align 4
  %3 = alloca i32, align 4
  %4 = alloca i64, align 8
  %5 = alloca [256 x i8], align 16
  call void @llvm.lifetime.start.p0(i64 4, ptr %2) #12
  %6 = call i32 @hasActiveChildProcess()
  %7 = icmp ne i32 %6, 0
  br i1 %7, label %8, label %9

8:                                                ; preds = %0
  store i32 -1, ptr %1, align 4
  store i32 1, ptr %3, align 4
  br label %86

9:                                                ; preds = %0
  %10 = load ptr, ptr getelementptr inbounds nuw (%struct.redisServer, ptr @server, i32 0, i32 196), align 8, !tbaa !66
  %11 = call i32 @dirCreateIfMissing(ptr noundef %10)
  %12 = icmp eq i32 %11, -1
  br i1 %12, label %13, label %25

13:                                               ; preds = %9
  br label %14

14:                                               ; preds = %13
  %15 = load i32, ptr getelementptr inbounds nuw (%struct.redisServer, ptr @server, i32 0, i32 159), align 8, !tbaa !67
  %16 = icmp slt i32 3, %15
  br i1 %16, label %17, label %18

17:                                               ; preds = %14
  br label %24

18:                                               ; preds = %14
  %19 = load ptr, ptr getelementptr inbounds nuw (%struct.redisServer, ptr @server, i32 0, i32 196), align 8, !tbaa !66
  %20 = call ptr @__errno_location() #15
  %21 = load i32, ptr %20, align 4, !tbaa !22
  %22 = call ptr @strerror(i32 noundef %21) #12
  call void (i32, ptr, ...) @_serverLog(i32 noundef 3, ptr noundef @.str.49, ptr noundef %19, ptr noundef %22)
  br label %23

23:                                               ; preds = %18
  br label %24

24:                                               ; preds = %23, %17
  store i32 -1, ptr getelementptr inbounds nuw (%struct.redisServer, ptr @server, i32 0, i32 215), align 4, !tbaa !116
  store i32 -1, ptr %1, align 4
  store i32 1, ptr %3, align 4
  br label %86

25:                                               ; preds = %9
  store i32 -1, ptr getelementptr inbounds nuw (%struct.redisServer, ptr @server, i32 0, i32 208), align 4, !tbaa !103
  call void @flushAppendOnlyFile(i32 noundef 1)
  %26 = call i32 @openNewIncrAofForAppend()
  %27 = icmp ne i32 %26, 0
  br i1 %27, label %28, label %29

28:                                               ; preds = %25
  store i32 -1, ptr getelementptr inbounds nuw (%struct.redisServer, ptr @server, i32 0, i32 215), align 4, !tbaa !116
  store i32 -1, ptr %1, align 4
  store i32 1, ptr %3, align 4
  br label %86

29:                                               ; preds = %25
  %30 = load i32, ptr getelementptr inbounds nuw (%struct.redisServer, ptr @server, i32 0, i32 193), align 8, !tbaa !84
  %31 = icmp eq i32 %30, 2
  br i1 %31, label %32, label %35

32:                                               ; preds = %29
  call void @bioDrainWorker(i32 noundef 1)
  %33 = load i64, ptr getelementptr inbounds nuw (%struct.redisServer, ptr @server, i32 0, i32 271), align 8, !tbaa !78
  store i64 %33, ptr %4, align 8, !tbaa !68
  %34 = load i64, ptr %4, align 8
  store atomic i64 %34, ptr getelementptr inbounds nuw (%struct.redisServer, ptr @server, i32 0, i32 273) monotonic, align 8
  store i64 0, ptr getelementptr inbounds nuw (%struct.redisServer, ptr @server, i32 0, i32 274), align 8, !tbaa !105
  br label %35

35:                                               ; preds = %32, %29
  %36 = load i64, ptr getelementptr inbounds nuw (%struct.redisServer, ptr @server, i32 0, i32 114), align 8, !tbaa !117
  %37 = add nsw i64 %36, 1
  store i64 %37, ptr getelementptr inbounds nuw (%struct.redisServer, ptr @server, i32 0, i32 114), align 8, !tbaa !117
  %38 = call i32 @redisFork(i32 noundef 2)
  store i32 %38, ptr %2, align 4, !tbaa !22
  %39 = icmp eq i32 %38, 0
  br i1 %39, label %40, label %60

40:                                               ; preds = %35
  call void @llvm.lifetime.start.p0(i64 256, ptr %5) #12
  %41 = call i32 @redisSetProcTitle(ptr noundef @.str.156)
  %42 = load ptr, ptr getelementptr inbounds nuw (%struct.redisServer, ptr @server, i32 0, i32 427), align 8, !tbaa !118
  call void @redisSetCpuAffinity(ptr noundef %42)
  %43 = getelementptr inbounds [256 x i8], ptr %5, i64 0, i64 0
  %44 = call i32 @getpid() #12
  %45 = call i32 (ptr, i64, ptr, ...) @snprintf(ptr noundef %43, i64 noundef 256, ptr noundef @.str.157, i32 noundef %44) #12
  %46 = getelementptr inbounds [256 x i8], ptr %5, i64 0, i64 0
  %47 = call i32 @rewriteAppendOnlyFile(ptr noundef %46)
  %48 = icmp eq i32 %47, 0
  br i1 %48, label %49, label %58

49:                                               ; preds = %40
  br label %50

50:                                               ; preds = %49
  %51 = load i32, ptr getelementptr inbounds nuw (%struct.redisServer, ptr @server, i32 0, i32 159), align 8, !tbaa !67
  %52 = icmp slt i32 2, %51
  br i1 %52, label %53, label %54

53:                                               ; preds = %50
  br label %57

54:                                               ; preds = %50
  %55 = getelementptr inbounds [256 x i8], ptr %5, i64 0, i64 0
  call void (i32, ptr, ...) @_serverLog(i32 noundef 2, ptr noundef @.str.158, ptr noundef %55)
  br label %56

56:                                               ; preds = %54
  br label %57

57:                                               ; preds = %56, %53
  call void @sendChildCowInfo(i32 noundef 1, ptr noundef @.str.149)
  call void @exitFromChild(i32 noundef 0)
  br label %59

58:                                               ; preds = %40
  call void @exitFromChild(i32 noundef 1)
  br label %59

59:                                               ; preds = %58, %57
  call void @llvm.lifetime.end.p0(i64 256, ptr %5) #12
  br label %85

60:                                               ; preds = %35
  %61 = load i32, ptr %2, align 4, !tbaa !22
  %62 = icmp eq i32 %61, -1
  br i1 %62, label %63, label %74

63:                                               ; preds = %60
  store i32 -1, ptr getelementptr inbounds nuw (%struct.redisServer, ptr @server, i32 0, i32 215), align 4, !tbaa !116
  br label %64

64:                                               ; preds = %63
  %65 = load i32, ptr getelementptr inbounds nuw (%struct.redisServer, ptr @server, i32 0, i32 159), align 8, !tbaa !67
  %66 = icmp slt i32 3, %65
  br i1 %66, label %67, label %68

67:                                               ; preds = %64
  br label %73

68:                                               ; preds = %64
  %69 = call ptr @__errno_location() #15
  %70 = load i32, ptr %69, align 4, !tbaa !22
  %71 = call ptr @strerror(i32 noundef %70) #12
  call void (i32, ptr, ...) @_serverLog(i32 noundef 3, ptr noundef @.str.159, ptr noundef %71)
  br label %72

72:                                               ; preds = %68
  br label %73

73:                                               ; preds = %72, %67
  store i32 -1, ptr %1, align 4
  store i32 1, ptr %3, align 4
  br label %86

74:                                               ; preds = %60
  br label %75

75:                                               ; preds = %74
  %76 = load i32, ptr getelementptr inbounds nuw (%struct.redisServer, ptr @server, i32 0, i32 159), align 8, !tbaa !67
  %77 = icmp slt i32 2, %76
  br i1 %77, label %78, label %79

78:                                               ; preds = %75
  br label %83

79:                                               ; preds = %75
  %80 = load i32, ptr %2, align 4, !tbaa !22
  %81 = sext i32 %80 to i64
  call void (i32, ptr, ...) @_serverLog(i32 noundef 2, ptr noundef @.str.160, i64 noundef %81)
  br label %82

82:                                               ; preds = %79
  br label %83

83:                                               ; preds = %82, %78
  store i32 0, ptr getelementptr inbounds nuw (%struct.redisServer, ptr @server, i32 0, i32 205), align 4, !tbaa !104
  %84 = call i64 @time(ptr noundef null) #12
  store i64 %84, ptr getelementptr inbounds nuw (%struct.redisServer, ptr @server, i32 0, i32 212), align 8, !tbaa !102
  store i32 0, ptr %1, align 4
  store i32 1, ptr %3, align 4
  br label %86

85:                                               ; preds = %59
  store i32 0, ptr %1, align 4
  store i32 1, ptr %3, align 4
  br label %86

86:                                               ; preds = %85, %83, %73, %28, %24, %8
  call void @llvm.lifetime.end.p0(i64 4, ptr %2) #12
  %87 = load i32, ptr %1, align 4
  ret i32 %87
}