; Function Attrs: nounwind uwtable
define dso_local range(i32 -1, 1) i32 @rewriteAppendOnlyFileBackground() local_unnamed_addr #0 {
  %1 = alloca [256 x i8], align 16
  %2 = tail call i32 @hasActiveChildProcess() #20
  %.not = icmp eq i32 %2, 0
  br i1 %.not, label %3, label %56

3:                                                ; preds = %0
  %4 = load ptr, ptr getelementptr inbounds nuw (i8, ptr @server, i64 6536), align 8, !tbaa !64
  %5 = tail call i32 @dirCreateIfMissing(ptr noundef %4) #20
  %6 = icmp eq i32 %5, -1
  br i1 %6, label %7, label %16

7:                                                ; preds = %3
  %8 = load i32, ptr getelementptr inbounds nuw (i8, ptr @server, i64 6288), align 8, !tbaa !65
  %9 = icmp sgt i32 %8, 3
  br i1 %9, label %15, label %10

10:                                               ; preds = %7
  %11 = load ptr, ptr getelementptr inbounds nuw (i8, ptr @server, i64 6536), align 8, !tbaa !64
  %12 = tail call ptr @__errno_location() #22
  %13 = load i32, ptr %12, align 4, !tbaa !21
  %14 = tail call ptr @strerror(i32 noundef %13) #20
  tail call void (i32, ptr, ...) @_serverLog(i32 noundef 3, ptr noundef nonnull @.str.49, ptr noundef %11, ptr noundef %14) #20
  br label %15

15:                                               ; preds = %7, %10
  store i32 -1, ptr getelementptr inbounds nuw (i8, ptr @server, i64 6660), align 4, !tbaa !111
  br label %56

16:                                               ; preds = %3
  store i32 -1, ptr getelementptr inbounds nuw (i8, ptr @server, i64 6612), align 4, !tbaa !97
  tail call void @flushAppendOnlyFile(i32 noundef 1)
  %17 = tail call i32 @openNewIncrAofForAppend()
  %.not5 = icmp eq i32 %17, 0
  br i1 %.not5, label %19, label %18

18:                                               ; preds = %16
  store i32 -1, ptr getelementptr inbounds nuw (i8, ptr @server, i64 6660), align 4, !tbaa !111
  br label %56

19:                                               ; preds = %16
  %20 = load i32, ptr getelementptr inbounds nuw (i8, ptr @server, i64 6520), align 8, !tbaa !79
  %21 = icmp eq i32 %20, 2
  br i1 %21, label %22, label %24

22:                                               ; preds = %19
  tail call void @bioDrainWorker(i32 noundef 1) #20
  %23 = load i64, ptr getelementptr inbounds nuw (i8, ptr @server, i64 7064), align 8, !tbaa !74
  store atomic i64 %23, ptr getelementptr inbounds nuw (i8, ptr @server, i64 7080) monotonic, align 8
  store i64 0, ptr getelementptr inbounds nuw (i8, ptr @server, i64 7088), align 8, !tbaa !99
  br label %24

24:                                               ; preds = %22, %19
  %25 = load i64, ptr getelementptr inbounds nuw (i8, ptr @server, i64 2648), align 8, !tbaa !112
  %26 = add nsw i64 %25, 1
  store i64 %26, ptr getelementptr inbounds nuw (i8, ptr @server, i64 2648), align 8, !tbaa !112
  %27 = tail call i32 @redisFork(i32 noundef 2) #20
  switch i32 %27, label %49 [
    i32 0, label %28
    i32 -1, label %42
  ]

28:                                               ; preds = %24
  call void @llvm.lifetime.start.p0(i64 256, ptr nonnull %1) #20
  %29 = tail call i32 @redisSetProcTitle(ptr noundef nonnull @.str.156) #20
  %30 = load ptr, ptr getelementptr inbounds nuw (i8, ptr @server, i64 8304), align 8, !tbaa !113
  tail call void @redisSetCpuAffinity(ptr noundef %30) #20
  %31 = tail call i32 @getpid() #20
  %32 = call i32 (ptr, i64, ptr, ...) @snprintf(ptr noundef nonnull dereferenceable(1) %1, i64 noundef 256, ptr noundef nonnull @.str.157, i32 noundef %31) #20
  %33 = call i32 @rewriteAppendOnlyFile(ptr noundef nonnull %1)
  %34 = icmp eq i32 %33, 0
  br i1 %34, label %35, label %40

35:                                               ; preds = %28
  %36 = load i32, ptr getelementptr inbounds nuw (i8, ptr @server, i64 6288), align 8, !tbaa !65
  %37 = icmp sgt i32 %36, 2
  br i1 %37, label %39, label %38

38:                                               ; preds = %35
  call void (i32, ptr, ...) @_serverLog(i32 noundef 2, ptr noundef nonnull @.str.158, ptr noundef nonnull %1) #20
  br label %39

39:                                               ; preds = %35, %38
  call void @sendChildCowInfo(i32 noundef 1, ptr noundef nonnull @.str.149) #20
  call void @exitFromChild(i32 noundef 0) #20
  br label %41

40:                                               ; preds = %28
  tail call void @exitFromChild(i32 noundef 1) #20
  br label %41

41:                                               ; preds = %40, %39
  call void @llvm.lifetime.end.p0(i64 256, ptr nonnull %1) #20
  br label %56

42:                                               ; preds = %24
  store i32 -1, ptr getelementptr inbounds nuw (i8, ptr @server, i64 6660), align 4, !tbaa !111
  %43 = load i32, ptr getelementptr inbounds nuw (i8, ptr @server, i64 6288), align 8, !tbaa !65
  %44 = icmp sgt i32 %43, 3
  br i1 %44, label %56, label %45

45:                                               ; preds = %42
  %46 = tail call ptr @__errno_location() #22
  %47 = load i32, ptr %46, align 4, !tbaa !21
  %48 = tail call ptr @strerror(i32 noundef %47) #20
  tail call void (i32, ptr, ...) @_serverLog(i32 noundef 3, ptr noundef nonnull @.str.159, ptr noundef %48) #20
  br label %56

49:                                               ; preds = %24
  %50 = load i32, ptr getelementptr inbounds nuw (i8, ptr @server, i64 6288), align 8, !tbaa !65
  %51 = icmp sgt i32 %50, 2
  br i1 %51, label %54, label %52

52:                                               ; preds = %49
  %53 = sext i32 %27 to i64
  tail call void (i32, ptr, ...) @_serverLog(i32 noundef 2, ptr noundef nonnull @.str.160, i64 noundef %53) #20
  br label %54

54:                                               ; preds = %49, %52
  store i32 0, ptr getelementptr inbounds nuw (i8, ptr @server, i64 6596), align 4, !tbaa !98
  %55 = tail call i64 @time(ptr noundef null) #20
  store i64 %55, ptr getelementptr inbounds nuw (i8, ptr @server, i64 6640), align 8, !tbaa !96
  br label %56

56:                                               ; preds = %45, %42, %0, %41, %54, %18, %15
  %.0 = phi i32 [ -1, %15 ], [ -1, %18 ], [ 0, %41 ], [ 0, %54 ], [ -1, %0 ], [ -1, %42 ], [ -1, %45 ]
  ret i32 %.0
}